   1               		.file	"graphics.c"
   2               	__SP_H__ = 0x3e
   3               	__SP_L__ = 0x3d
   4               	__SREG__ = 0x3f
   5               	__tmp_reg__ = 0
   6               	__zero_reg__ = 1
   7               		.text
   8               	.Ltext0:
   9               		.cfi_sections	.debug_frame
  10               		.section	.text.show_screen,"ax",@progbits
  11               	.global	show_screen
  13               	show_screen:
  14               	.LFB1:
  15               		.file 1 "graphics.c"
   1:graphics.c    **** /*
   2:graphics.c    **** *	CAB202 Teensy Library: 'cab202_teensy'
   3:graphics.c    **** *	graphics.c
   4:graphics.c    **** *
   5:graphics.c    **** *	B.Talbot, September 2015
   6:graphics.c    **** *	Queensland University of Technology
   7:graphics.c    **** */
   8:graphics.c    **** #include <avr/pgmspace.h>
   9:graphics.c    **** #include "graphics.h"
  10:graphics.c    **** #include "macros.h"
  11:graphics.c    **** 
  12:graphics.c    **** /*
  13:graphics.c    ****  * Local screen buffer
  14:graphics.c    ****  */
  15:graphics.c    **** unsigned char screenBuffer[LCD_BUFFER_SIZE];
  16:graphics.c    **** 
  17:graphics.c    **** /*
  18:graphics.c    ****  * Function implementations
  19:graphics.c    ****  */
  20:graphics.c    **** void show_screen(void) {
  16               		.loc 1 20 0
  17               		.cfi_startproc
  18 0000 CF93      		push r28
  19               	.LCFI0:
  20               		.cfi_def_cfa_offset 3
  21               		.cfi_offset 28, -2
  22 0002 DF93      		push r29
  23               	.LCFI1:
  24               		.cfi_def_cfa_offset 4
  25               		.cfi_offset 29, -3
  26               	/* prologue: function */
  27               	/* frame size = 0 */
  28               	/* stack size = 2 */
  29               	.L__stack_usage = 2
  21:graphics.c    **** 	// Reset our position in the LCD RAM
  22:graphics.c    **** 	LCDPosition(0,0);
  30               		.loc 1 22 0
  31 0004 60E0      		ldi r22,0
  32 0006 80E0      		ldi r24,0
  33 0008 0E94 0000 		call LCDPosition
  34               	.LVL0:
  35 000c C0E0      		ldi r28,lo8(screenBuffer)
  36 000e D0E0      		ldi r29,hi8(screenBuffer)
  37               	.LVL1:
  38               	.L3:
  23:graphics.c    **** 
  24:graphics.c    **** 	// Iterate through our buffer and write each byte to the LCD.
  25:graphics.c    **** 	unsigned int i;
  26:graphics.c    **** 	for(i = 0; i < LCD_BUFFER_SIZE; i++){
  27:graphics.c    **** 		LCDWrite(LCD_D, screenBuffer[i]);
  39               		.loc 1 27 0 discriminator 2
  40 0010 6991      		ld r22,Y+
  41               	.LVL2:
  42 0012 81E0      		ldi r24,lo8(1)
  43 0014 0E94 0000 		call LCDWrite
  44               	.LVL3:
  26:graphics.c    **** 	for(i = 0; i < LCD_BUFFER_SIZE; i++){
  45               		.loc 1 26 0 discriminator 2
  46 0018 80E0      		ldi r24,hi8(screenBuffer+504)
  47 001a C030      		cpi r28,lo8(screenBuffer+504)
  48 001c D807      		cpc r29,r24
  49 001e 01F4      		brne .L3
  50               	/* epilogue start */
  28:graphics.c    **** 	}
  29:graphics.c    **** }
  51               		.loc 1 29 0
  52 0020 DF91      		pop r29
  53 0022 CF91      		pop r28
  54               	.LVL4:
  55 0024 0895      		ret
  56               		.cfi_endproc
  57               	.LFE1:
  59               		.section	.text.clear_screen,"ax",@progbits
  60               	.global	clear_screen
  62               	clear_screen:
  63               	.LFB2:
  30:graphics.c    **** 
  31:graphics.c    **** void clear_screen(void) {
  64               		.loc 1 31 0
  65               		.cfi_startproc
  66               	/* prologue: function */
  67               	/* frame size = 0 */
  68               	/* stack size = 0 */
  69               	.L__stack_usage = 0
  70               	.LVL5:
  71 0000 E0E0      		ldi r30,lo8(screenBuffer)
  72 0002 F0E0      		ldi r31,hi8(screenBuffer)
  73               	.LVL6:
  74               	.L7:
  32:graphics.c    **** 	// Set every byte in the buffer to 0b00000000
  33:graphics.c    **** 	unsigned int i;
  34:graphics.c    **** 	for(i = 0; i < LCD_BUFFER_SIZE; i++){
  35:graphics.c    **** 		 screenBuffer[i] = 0;
  75               		.loc 1 35 0 discriminator 2
  76 0004 1192      		st Z+,__zero_reg__
  77               	.LVL7:
  34:graphics.c    **** 	for(i = 0; i < LCD_BUFFER_SIZE; i++){
  78               		.loc 1 34 0 discriminator 2
  79 0006 80E0      		ldi r24,hi8(screenBuffer+504)
  80 0008 E030      		cpi r30,lo8(screenBuffer+504)
  81 000a F807      		cpc r31,r24
  82 000c 01F4      		brne .L7
  83               	/* epilogue start */
  36:graphics.c    **** 	}
  37:graphics.c    **** }
  84               		.loc 1 37 0
  85 000e 0895      		ret
  86               		.cfi_endproc
  87               	.LFE2:
  89               		.section	.text.set_pixel,"ax",@progbits
  90               	.global	set_pixel
  92               	set_pixel:
  93               	.LFB3:
  38:graphics.c    **** void set_pixel(unsigned char x, unsigned char y, unsigned char value){
  94               		.loc 1 38 0
  95               		.cfi_startproc
  96               	.LVL8:
  97               	/* prologue: function */
  98               	/* frame size = 0 */
  99               	/* stack size = 0 */
 100               	.L__stack_usage = 0
  39:graphics.c    **** 	// Sanity check (bad things happen otherwise...)
  40:graphics.c    **** 	if (x >= LCD_X || y >= LCD_Y) {
 101               		.loc 1 40 0
 102 0000 8435      		cpi r24,lo8(84)
 103 0002 00F4      		brsh .L8
 104               		.loc 1 40 0 is_stmt 0 discriminator 1
 105 0004 6033      		cpi r22,lo8(48)
 106 0006 00F4      		brsh .L8
 107               	.LVL9:
 108               	.LBB4:
 109               	.LBB5:
  41:graphics.c    **** 		return;
  42:graphics.c    **** 	}
  43:graphics.c    **** 
  44:graphics.c    **** 	// Calculate the pixel 'subrow', within that LCD row
  45:graphics.c    **** 	unsigned char row = y/8;
 110               		.loc 1 45 0 is_stmt 1
 111 0008 E62F      		mov r30,r22
 112 000a E695      		lsr r30
 113 000c E695      		lsr r30
 114 000e E695      		lsr r30
 115               	.LVL10:
  46:graphics.c    **** 	unsigned char subrow = y%8;
 116               		.loc 1 46 0
 117 0010 6770      		andi r22,lo8(7)
 118               	.LVL11:
 119 0012 94E5      		ldi r25,lo8(84)
 120 0014 E99F      		mul r30,r25
 121 0016 F001      		movw r30,r0
 122 0018 1124      		clr __zero_reg__
 123               	.LVL12:
 124 001a 90E0      		ldi r25,0
  47:graphics.c    **** 
  48:graphics.c    **** 	// Set that particular pixel in our screen buffer
  49:graphics.c    **** 	if (value){
  50:graphics.c    **** 		screenBuffer[row*84+x] |= (1 << subrow); 	//Set Pixel
 125               		.loc 1 50 0
 126 001c E80F      		add r30,r24
 127 001e F91F      		adc r31,r25
 128 0020 E050      		subi r30,lo8(-(screenBuffer))
 129 0022 F040      		sbci r31,hi8(-(screenBuffer))
 130 0024 81E0      		ldi r24,lo8(1)
 131 0026 90E0      		ldi r25,0
 132               	.LVL13:
 133 0028 062E      		mov r0,r22
 134 002a 00C0      		rjmp 2f
 135               		1:
 136 002c 880F      		lsl r24
 137               		2:
 138 002e 0A94      		dec r0
 139 0030 02F4      		brpl 1b
  49:graphics.c    **** 	if (value){
 140               		.loc 1 49 0
 141 0032 4423      		tst r20
 142 0034 01F0      		breq .L10
 143               		.loc 1 50 0
 144 0036 9081      		ld r25,Z
 145 0038 982B      		or r25,r24
 146 003a 00C0      		rjmp .L11
 147               	.L10:
  51:graphics.c    **** 	} else {
  52:graphics.c    **** 		screenBuffer[row*84+x] &= ~(1 << subrow); 	//Clear Pixel
 148               		.loc 1 52 0
 149 003c 8095      		com r24
 150 003e 9081      		ld r25,Z
 151 0040 9823      		and r25,r24
 152               	.L11:
 153 0042 9083      		st Z,r25
 154               	.LVL14:
 155               	.L8:
 156 0044 0895      		ret
 157               	.LBE5:
 158               	.LBE4:
 159               		.cfi_endproc
 160               	.LFE3:
 162               	.global	__floatsisf
 163               	.global	__divsf3
 164               	.global	__gesf2
 165               	.global	__addsf3
 166               	.global	__gtsf2
 167               	.global	__ltsf2
 168               	.global	__subsf3
 169               		.section	.text.draw_line,"ax",@progbits
 170               	.global	draw_line
 172               	draw_line:
 173               	.LFB4:
  53:graphics.c    **** 	}
  54:graphics.c    **** }
  55:graphics.c    **** 
  56:graphics.c    **** void draw_line(unsigned char x1, unsigned char y1, unsigned char x2, unsigned char y2) {
 174               		.loc 1 56 0
 175               		.cfi_startproc
 176               	.LVL15:
 177 0000 2F92      		push r2
 178               	.LCFI2:
 179               		.cfi_def_cfa_offset 3
 180               		.cfi_offset 2, -2
 181 0002 3F92      		push r3
 182               	.LCFI3:
 183               		.cfi_def_cfa_offset 4
 184               		.cfi_offset 3, -3
 185 0004 4F92      		push r4
 186               	.LCFI4:
 187               		.cfi_def_cfa_offset 5
 188               		.cfi_offset 4, -4
 189 0006 5F92      		push r5
 190               	.LCFI5:
 191               		.cfi_def_cfa_offset 6
 192               		.cfi_offset 5, -5
 193 0008 6F92      		push r6
 194               	.LCFI6:
 195               		.cfi_def_cfa_offset 7
 196               		.cfi_offset 6, -6
 197 000a 7F92      		push r7
 198               	.LCFI7:
 199               		.cfi_def_cfa_offset 8
 200               		.cfi_offset 7, -7
 201 000c 8F92      		push r8
 202               	.LCFI8:
 203               		.cfi_def_cfa_offset 9
 204               		.cfi_offset 8, -8
 205 000e 9F92      		push r9
 206               	.LCFI9:
 207               		.cfi_def_cfa_offset 10
 208               		.cfi_offset 9, -9
 209 0010 AF92      		push r10
 210               	.LCFI10:
 211               		.cfi_def_cfa_offset 11
 212               		.cfi_offset 10, -10
 213 0012 BF92      		push r11
 214               	.LCFI11:
 215               		.cfi_def_cfa_offset 12
 216               		.cfi_offset 11, -11
 217 0014 CF92      		push r12
 218               	.LCFI12:
 219               		.cfi_def_cfa_offset 13
 220               		.cfi_offset 12, -12
 221 0016 DF92      		push r13
 222               	.LCFI13:
 223               		.cfi_def_cfa_offset 14
 224               		.cfi_offset 13, -13
 225 0018 EF92      		push r14
 226               	.LCFI14:
 227               		.cfi_def_cfa_offset 15
 228               		.cfi_offset 14, -14
 229 001a FF92      		push r15
 230               	.LCFI15:
 231               		.cfi_def_cfa_offset 16
 232               		.cfi_offset 15, -15
 233 001c 0F93      		push r16
 234               	.LCFI16:
 235               		.cfi_def_cfa_offset 17
 236               		.cfi_offset 16, -16
 237 001e 1F93      		push r17
 238               	.LCFI17:
 239               		.cfi_def_cfa_offset 18
 240               		.cfi_offset 17, -17
 241 0020 CF93      		push r28
 242               	.LCFI18:
 243               		.cfi_def_cfa_offset 19
 244               		.cfi_offset 28, -18
 245 0022 DF93      		push r29
 246               	.LCFI19:
 247               		.cfi_def_cfa_offset 20
 248               		.cfi_offset 29, -19
 249 0024 CDB7      		in r28,__SP_L__
 250 0026 DEB7      		in r29,__SP_H__
 251               	.LCFI20:
 252               		.cfi_def_cfa_register 28
 253 0028 2D97      		sbiw r28,13
 254               	.LCFI21:
 255               		.cfi_def_cfa_offset 33
 256 002a 0FB6      		in __tmp_reg__,__SREG__
 257 002c F894      		cli
 258 002e DEBF      		out __SP_H__,r29
 259 0030 0FBE      		out __SREG__,__tmp_reg__
 260 0032 CDBF      		out __SP_L__,r28
 261               	/* prologue: function */
 262               	/* frame size = 13 */
 263               	/* stack size = 31 */
 264               	.L__stack_usage = 31
 265 0034 E82E      		mov r14,r24
 266 0036 262E      		mov r2,r22
 267 0038 D42E      		mov r13,r20
 268 003a F22E      		mov r15,r18
  57:graphics.c    **** 	if (x1 == x2) {
 269               		.loc 1 57 0
 270 003c 8413      		cpse r24,r20
 271 003e 00C0      		rjmp .L13
 272               	.LBB6:
  58:graphics.c    **** 		// Draw vertical line
  59:graphics.c    **** 		for (int i = y1; (y2 > y1) ? i <= y2 : i >= y2; (y2 > y1) ? i++ : i-- ) {
 273               		.loc 1 59 0
 274 0040 C62E      		mov r12,r22
 275 0042 D12C      		mov r13,__zero_reg__
 276               	.LVL16:
 277 0044 022F      		mov r16,r18
 278 0046 10E0      		ldi r17,0
 279               	.LVL17:
 280               	.L14:
 281               		.loc 1 59 0 is_stmt 0 discriminator 1
 282 0048 2F14      		cp r2,r15
 283 004a 00F4      		brsh .L17
 284 004c 0C15      		cp r16,r12
 285 004e 1D05      		cpc r17,r13
 286 0050 04F4      		brge .+2
 287 0052 00C0      		rjmp .L12
 288               	.L21:
  60:graphics.c    **** 			set_pixel(x1, i, 1);
 289               		.loc 1 60 0 is_stmt 1 discriminator 2
 290 0054 41E0      		ldi r20,lo8(1)
 291 0056 6C2D      		mov r22,r12
 292 0058 8E2D      		mov r24,r14
 293 005a 0E94 0000 		call set_pixel
 294               	.LVL18:
  59:graphics.c    **** 		for (int i = y1; (y2 > y1) ? i <= y2 : i >= y2; (y2 > y1) ? i++ : i-- ) {
 295               		.loc 1 59 0 discriminator 2
 296 005e 2F14      		cp r2,r15
 297 0060 00F4      		brsh .L15
  59:graphics.c    **** 		for (int i = y1; (y2 > y1) ? i <= y2 : i >= y2; (y2 > y1) ? i++ : i-- ) {
 298               		.loc 1 59 0 is_stmt 0 discriminator 1
 299 0062 2FEF      		ldi r18,-1
 300 0064 C21A      		sub r12,r18
 301 0066 D20A      		sbc r13,r18
 302               	.LVL19:
 303 0068 00C0      		rjmp .L14
 304               	.L15:
  59:graphics.c    **** 		for (int i = y1; (y2 > y1) ? i <= y2 : i >= y2; (y2 > y1) ? i++ : i-- ) {
 305               		.loc 1 59 0 discriminator 2
 306 006a 31E0      		ldi r19,1
 307 006c C31A      		sub r12,r19
 308 006e D108      		sbc r13,__zero_reg__
 309               	.LVL20:
 310 0070 00C0      		rjmp .L14
 311               	.L17:
 312 0072 C016      		cp r12,r16
 313 0074 D106      		cpc r13,r17
 314 0076 04F4      		brge .L21
 315 0078 00C0      		rjmp .L12
 316               	.LVL21:
 317               	.L13:
 318 007a 082F      		mov r16,r24
 319 007c 10E0      		ldi r17,0
 320 007e 842F      		mov r24,r20
 321 0080 90E0      		ldi r25,0
 322 0082 9D87      		std Y+13,r25
 323 0084 8C87      		std Y+12,r24
 324               	.LBE6:
  61:graphics.c    **** 		}
  62:graphics.c    **** 	} else if (y1 == y2) {
 325               		.loc 1 62 0 is_stmt 1
 326 0086 6213      		cpse r22,r18
 327 0088 00C0      		rjmp .L22
 328               	.L23:
 329               	.LVL22:
 330               	.LBB7:
  63:graphics.c    **** 		// Draw horizontal line
  64:graphics.c    **** 		for (int i = x1; (x2 > x1) ? i <= x2 : i >= x2; (x2 > x1) ? i++ : i-- ) {
 331               		.loc 1 64 0 discriminator 1
 332 008a ED14      		cp r14,r13
 333 008c 00F4      		brsh .L26
 334 008e EC85      		ldd r30,Y+12
 335 0090 FD85      		ldd r31,Y+13
 336 0092 E017      		cp r30,r16
 337 0094 F107      		cpc r31,r17
 338 0096 04F4      		brge .+2
 339 0098 00C0      		rjmp .L12
 340               	.L30:
  65:graphics.c    **** 			set_pixel(i, y1, 1);
 341               		.loc 1 65 0 discriminator 2
 342 009a 41E0      		ldi r20,lo8(1)
 343 009c 622D      		mov r22,r2
 344 009e 802F      		mov r24,r16
 345 00a0 0E94 0000 		call set_pixel
 346               	.LVL23:
  64:graphics.c    **** 		for (int i = x1; (x2 > x1) ? i <= x2 : i >= x2; (x2 > x1) ? i++ : i-- ) {
 347               		.loc 1 64 0 discriminator 2
 348 00a4 ED14      		cp r14,r13
 349 00a6 00F4      		brsh .L24
  64:graphics.c    **** 		for (int i = x1; (x2 > x1) ? i <= x2 : i >= x2; (x2 > x1) ? i++ : i-- ) {
 350               		.loc 1 64 0 is_stmt 0 discriminator 1
 351 00a8 0F5F      		subi r16,-1
 352 00aa 1F4F      		sbci r17,-1
 353               	.LVL24:
 354 00ac 00C0      		rjmp .L23
 355               	.L24:
  64:graphics.c    **** 		for (int i = x1; (x2 > x1) ? i <= x2 : i >= x2; (x2 > x1) ? i++ : i-- ) {
 356               		.loc 1 64 0 discriminator 2
 357 00ae 0150      		subi r16,1
 358 00b0 1109      		sbc r17,__zero_reg__
 359               	.LVL25:
 360 00b2 00C0      		rjmp .L23
 361               	.L26:
 362 00b4 2C85      		ldd r18,Y+12
 363 00b6 3D85      		ldd r19,Y+13
 364 00b8 0217      		cp r16,r18
 365 00ba 1307      		cpc r17,r19
 366 00bc 04F4      		brge .L30
 367 00be 00C0      		rjmp .L12
 368               	.LVL26:
 369               	.L22:
 370               	.LBE7:
 371               	.LBB8:
  66:graphics.c    **** 		}
  67:graphics.c    **** 	} else {
  68:graphics.c    **** 		// Get Bresenhaming...
  69:graphics.c    **** 		float dx = x2-x1;
 372               		.loc 1 69 0 is_stmt 1
 373 00c0 6C85      		ldd r22,Y+12
 374 00c2 7D85      		ldd r23,Y+13
 375 00c4 601B      		sub r22,r16
 376 00c6 710B      		sbc r23,r17
 377 00c8 8827      		clr r24
 378 00ca 77FD      		sbrc r23,7
 379 00cc 8095      		com r24
 380 00ce 982F      		mov r25,r24
 381 00d0 0E94 0000 		call __floatsisf
 382               	.LVL27:
 383 00d4 2B01      		movw r4,r22
 384 00d6 3C01      		movw r6,r24
 385               	.LVL28:
  70:graphics.c    **** 		float dy = y2-y1;
 386               		.loc 1 70 0
 387 00d8 8F2D      		mov r24,r15
 388 00da 90E0      		ldi r25,0
 389 00dc 9E83      		std Y+6,r25
 390 00de 8D83      		std Y+5,r24
 391 00e0 312C      		mov r3,__zero_reg__
 392 00e2 BC01      		movw r22,r24
 393 00e4 6219      		sub r22,r2
 394 00e6 7309      		sbc r23,r3
 395 00e8 8827      		clr r24
 396 00ea 77FD      		sbrc r23,7
 397 00ec 8095      		com r24
 398 00ee 982F      		mov r25,r24
 399 00f0 0E94 0000 		call __floatsisf
 400               	.LVL29:
 401 00f4 4B01      		movw r8,r22
 402 00f6 5C01      		movw r10,r24
 403               	.LVL30:
  71:graphics.c    **** 		float err = 0.0;
  72:graphics.c    **** 		float derr = ABS(dy/dx);
 404               		.loc 1 72 0
 405 00f8 A301      		movw r20,r6
 406 00fa 9201      		movw r18,r4
 407 00fc 0E94 0000 		call __divsf3
 408               	.LVL31:
 409 0100 6983      		std Y+1,r22
 410 0102 7A83      		std Y+2,r23
 411 0104 8B83      		std Y+3,r24
 412 0106 9C83      		std Y+4,r25
 413 0108 20E0      		ldi r18,0
 414 010a 30E0      		ldi r19,0
 415 010c A901      		movw r20,r18
 416 010e 0E94 0000 		call __gesf2
 417               	.LVL32:
 418 0112 87FF      		sbrs r24,7
 419 0114 00C0      		rjmp .L32
 420               		.loc 1 72 0 is_stmt 0 discriminator 2
 421 0116 A301      		movw r20,r6
 422 0118 9201      		movw r18,r4
 423 011a C501      		movw r24,r10
 424 011c B401      		movw r22,r8
 425 011e 9058      		subi r25,0x80
 426 0120 0E94 0000 		call __divsf3
 427               	.LVL33:
 428 0124 6983      		std Y+1,r22
 429 0126 7A83      		std Y+2,r23
 430 0128 8B83      		std Y+3,r24
 431 012a 9C83      		std Y+4,r25
 432               	.L32:
 433               	.LVL34:
  71:graphics.c    **** 		float err = 0.0;
 434               		.loc 1 71 0 is_stmt 1 discriminator 3
 435 012c C12C      		mov r12,__zero_reg__
 436 012e D12C      		mov r13,__zero_reg__
 437 0130 7601      		movw r14,r12
 438               	.LVL35:
 439               	.L33:
 440               	.LBB9:
  73:graphics.c    **** 
  74:graphics.c    **** 		for (int x = x1, y = y1; (dx > 0) ? x<=x2 : x>=x2; (dx > 0) ? x++ : x--) {
 441               		.loc 1 74 0 discriminator 1
 442 0132 20E0      		ldi r18,0
 443 0134 30E0      		ldi r19,0
 444 0136 A901      		movw r20,r18
 445 0138 C301      		movw r24,r6
 446 013a B201      		movw r22,r4
 447 013c 0E94 0000 		call __gtsf2
 448               	.LVL36:
 449 0140 1816      		cp __zero_reg__,r24
 450 0142 04F0      		brlt .+2
 451 0144 00C0      		rjmp .L55
 452 0146 EC85      		ldd r30,Y+12
 453 0148 FD85      		ldd r31,Y+13
 454 014a E017      		cp r30,r16
 455 014c F107      		cpc r31,r17
 456 014e 04F4      		brge .+2
 457 0150 00C0      		rjmp .L12
 458               	.L50:
  75:graphics.c    **** 			set_pixel(x, y, 1);
 459               		.loc 1 75 0
 460 0152 0B87      		std Y+11,r16
 461 0154 41E0      		ldi r20,lo8(1)
 462 0156 622D      		mov r22,r2
 463 0158 802F      		mov r24,r16
 464 015a 0E94 0000 		call set_pixel
 465               	.LVL37:
  76:graphics.c    **** 			err += derr;
 466               		.loc 1 76 0
 467 015e 2981      		ldd r18,Y+1
 468 0160 3A81      		ldd r19,Y+2
 469 0162 4B81      		ldd r20,Y+3
 470 0164 5C81      		ldd r21,Y+4
 471 0166 C701      		movw r24,r14
 472 0168 B601      		movw r22,r12
 473 016a 0E94 0000 		call __addsf3
 474               	.LVL38:
 475               	.L56:
  77:graphics.c    **** 			while (err >= 0.5 && ((dy > 0) ? y<=y2 : y>=y2) ) {
  78:graphics.c    **** 				set_pixel(x, y, 1);
  79:graphics.c    **** 				y += (dy > 0) - (dy < 0);
  80:graphics.c    **** 				err -= 1.0;
 476               		.loc 1 80 0
 477 016e 6B01      		movw r12,r22
 478 0170 7C01      		movw r14,r24
 479               	.LVL39:
  77:graphics.c    **** 			while (err >= 0.5 && ((dy > 0) ? y<=y2 : y>=y2) ) {
 480               		.loc 1 77 0
 481 0172 20E0      		ldi r18,0
 482 0174 30E0      		ldi r19,0
 483 0176 40E0      		ldi r20,0
 484 0178 5FE3      		ldi r21,lo8(63)
 485 017a 0E94 0000 		call __gesf2
 486               	.LVL40:
 487 017e 87FF      		sbrs r24,7
 488 0180 00C0      		rjmp .L37
 489               	.L43:
  74:graphics.c    **** 		for (int x = x1, y = y1; (dx > 0) ? x<=x2 : x>=x2; (dx > 0) ? x++ : x--) {
 490               		.loc 1 74 0
 491 0182 20E0      		ldi r18,0
 492 0184 30E0      		ldi r19,0
 493 0186 A901      		movw r20,r18
 494 0188 C301      		movw r24,r6
 495 018a B201      		movw r22,r4
 496 018c 0E94 0000 		call __gtsf2
 497               	.LVL41:
 498 0190 1816      		cp __zero_reg__,r24
 499 0192 04F0      		brlt .+2
 500 0194 00C0      		rjmp .L57
  74:graphics.c    **** 		for (int x = x1, y = y1; (dx > 0) ? x<=x2 : x>=x2; (dx > 0) ? x++ : x--) {
 501               		.loc 1 74 0 is_stmt 0 discriminator 1
 502 0196 0F5F      		subi r16,-1
 503 0198 1F4F      		sbci r17,-1
 504               	.LVL42:
 505 019a 00C0      		rjmp .L33
 506               	.L37:
  77:graphics.c    **** 			while (err >= 0.5 && ((dy > 0) ? y<=y2 : y>=y2) ) {
 507               		.loc 1 77 0 is_stmt 1 discriminator 2
 508 019c 20E0      		ldi r18,0
 509 019e 30E0      		ldi r19,0
 510 01a0 A901      		movw r20,r18
 511 01a2 C501      		movw r24,r10
 512 01a4 B401      		movw r22,r8
 513 01a6 0E94 0000 		call __gtsf2
 514               	.LVL43:
 515 01aa 1816      		cp __zero_reg__,r24
 516 01ac 04F4      		brge .L54
  77:graphics.c    **** 			while (err >= 0.5 && ((dy > 0) ? y<=y2 : y>=y2) ) {
 517               		.loc 1 77 0 is_stmt 0 discriminator 3
 518 01ae 2D81      		ldd r18,Y+5
 519 01b0 3E81      		ldd r19,Y+6
 520 01b2 2215      		cp r18,r2
 521 01b4 3305      		cpc r19,r3
 522 01b6 04F0      		brlt .L43
 523               	.L42:
  78:graphics.c    **** 				set_pixel(x, y, 1);
 524               		.loc 1 78 0 is_stmt 1
 525 01b8 41E0      		ldi r20,lo8(1)
 526 01ba 622D      		mov r22,r2
 527 01bc 8B85      		ldd r24,Y+11
 528 01be 0E94 0000 		call set_pixel
 529               	.LVL44:
  79:graphics.c    **** 				y += (dy > 0) - (dy < 0);
 530               		.loc 1 79 0
 531 01c2 E1E0      		ldi r30,lo8(1)
 532 01c4 F0E0      		ldi r31,0
 533 01c6 F887      		std Y+8,r31
 534 01c8 EF83      		std Y+7,r30
 535 01ca 20E0      		ldi r18,0
 536 01cc 30E0      		ldi r19,0
 537 01ce A901      		movw r20,r18
 538 01d0 C501      		movw r24,r10
 539 01d2 B401      		movw r22,r8
 540 01d4 0E94 0000 		call __gtsf2
 541               	.LVL45:
 542 01d8 1816      		cp __zero_reg__,r24
 543 01da 04F0      		brlt .L35
 544 01dc 1886      		std Y+8,__zero_reg__
 545 01de 1F82      		std Y+7,__zero_reg__
 546               	.L35:
 547 01e0 21E0      		ldi r18,lo8(1)
 548 01e2 30E0      		ldi r19,0
 549 01e4 3A87      		std Y+10,r19
 550 01e6 2987      		std Y+9,r18
 551 01e8 20E0      		ldi r18,0
 552 01ea 30E0      		ldi r19,0
 553 01ec A901      		movw r20,r18
 554 01ee C501      		movw r24,r10
 555 01f0 B401      		movw r22,r8
 556 01f2 0E94 0000 		call __ltsf2
 557               	.LVL46:
 558 01f6 87FD      		sbrc r24,7
 559 01f8 00C0      		rjmp .L36
 560 01fa 1A86      		std Y+10,__zero_reg__
 561 01fc 1986      		std Y+9,__zero_reg__
 562               	.L36:
 563 01fe 8F81      		ldd r24,Y+7
 564 0200 9885      		ldd r25,Y+8
 565 0202 E985      		ldd r30,Y+9
 566 0204 FA85      		ldd r31,Y+10
 567 0206 8E1B      		sub r24,r30
 568 0208 9F0B      		sbc r25,r31
 569 020a 280E      		add r2,r24
 570 020c 391E      		adc r3,r25
 571               	.LVL47:
 572               		.loc 1 80 0
 573 020e 20E0      		ldi r18,0
 574 0210 30E0      		ldi r19,0
 575 0212 40E8      		ldi r20,lo8(-128)
 576 0214 5FE3      		ldi r21,lo8(63)
 577 0216 C701      		movw r24,r14
 578 0218 B601      		movw r22,r12
 579 021a 0E94 0000 		call __subsf3
 580               	.LVL48:
 581 021e 00C0      		rjmp .L56
 582               	.L54:
  77:graphics.c    **** 			while (err >= 0.5 && ((dy > 0) ? y<=y2 : y>=y2) ) {
 583               		.loc 1 77 0 discriminator 4
 584 0220 8D81      		ldd r24,Y+5
 585 0222 9E81      		ldd r25,Y+6
 586 0224 2816      		cp r2,r24
 587 0226 3906      		cpc r3,r25
 588 0228 04F4      		brge .L42
 589 022a 00C0      		rjmp .L43
 590               	.L57:
  74:graphics.c    **** 		for (int x = x1, y = y1; (dx > 0) ? x<=x2 : x>=x2; (dx > 0) ? x++ : x--) {
 591               		.loc 1 74 0 discriminator 2
 592 022c 0150      		subi r16,1
 593 022e 1109      		sbc r17,__zero_reg__
 594               	.LVL49:
 595 0230 00C0      		rjmp .L33
 596               	.L55:
 597 0232 2C85      		ldd r18,Y+12
 598 0234 3D85      		ldd r19,Y+13
 599 0236 0217      		cp r16,r18
 600 0238 1307      		cpc r17,r19
 601 023a 04F0      		brlt .+2
 602 023c 00C0      		rjmp .L50
 603               	.LVL50:
 604               	.L12:
 605               	/* epilogue start */
 606               	.LBE9:
 607               	.LBE8:
  81:graphics.c    **** 			}
  82:graphics.c    **** 		}
  83:graphics.c    **** 	}
  84:graphics.c    **** }
 608               		.loc 1 84 0
 609 023e 2D96      		adiw r28,13
 610 0240 0FB6      		in __tmp_reg__,__SREG__
 611 0242 F894      		cli
 612 0244 DEBF      		out __SP_H__,r29
 613 0246 0FBE      		out __SREG__,__tmp_reg__
 614 0248 CDBF      		out __SP_L__,r28
 615 024a DF91      		pop r29
 616 024c CF91      		pop r28
 617 024e 1F91      		pop r17
 618 0250 0F91      		pop r16
 619 0252 FF90      		pop r15
 620               	.LVL51:
 621 0254 EF90      		pop r14
 622               	.LVL52:
 623 0256 DF90      		pop r13
 624 0258 CF90      		pop r12
 625 025a BF90      		pop r11
 626 025c AF90      		pop r10
 627 025e 9F90      		pop r9
 628 0260 8F90      		pop r8
 629 0262 7F90      		pop r7
 630 0264 6F90      		pop r6
 631 0266 5F90      		pop r5
 632 0268 4F90      		pop r4
 633 026a 3F90      		pop r3
 634 026c 2F90      		pop r2
 635 026e 0895      		ret
 636               		.cfi_endproc
 637               	.LFE4:
 639               		.section	.text.draw_char,"ax",@progbits
 640               	.global	draw_char
 642               	draw_char:
 643               	.LFB5:
  85:graphics.c    **** 
  86:graphics.c    **** void draw_char(unsigned char top_left_x, unsigned char top_left_y, char character) {
 644               		.loc 1 86 0
 645               		.cfi_startproc
 646               	.LVL53:
 647 0000 7F92      		push r7
 648               	.LCFI22:
 649               		.cfi_def_cfa_offset 3
 650               		.cfi_offset 7, -2
 651 0002 8F92      		push r8
 652               	.LCFI23:
 653               		.cfi_def_cfa_offset 4
 654               		.cfi_offset 8, -3
 655 0004 9F92      		push r9
 656               	.LCFI24:
 657               		.cfi_def_cfa_offset 5
 658               		.cfi_offset 9, -4
 659 0006 AF92      		push r10
 660               	.LCFI25:
 661               		.cfi_def_cfa_offset 6
 662               		.cfi_offset 10, -5
 663 0008 BF92      		push r11
 664               	.LCFI26:
 665               		.cfi_def_cfa_offset 7
 666               		.cfi_offset 11, -6
 667 000a CF92      		push r12
 668               	.LCFI27:
 669               		.cfi_def_cfa_offset 8
 670               		.cfi_offset 12, -7
 671 000c DF92      		push r13
 672               	.LCFI28:
 673               		.cfi_def_cfa_offset 9
 674               		.cfi_offset 13, -8
 675 000e EF92      		push r14
 676               	.LCFI29:
 677               		.cfi_def_cfa_offset 10
 678               		.cfi_offset 14, -9
 679 0010 FF92      		push r15
 680               	.LCFI30:
 681               		.cfi_def_cfa_offset 11
 682               		.cfi_offset 15, -10
 683 0012 0F93      		push r16
 684               	.LCFI31:
 685               		.cfi_def_cfa_offset 12
 686               		.cfi_offset 16, -11
 687 0014 1F93      		push r17
 688               	.LCFI32:
 689               		.cfi_def_cfa_offset 13
 690               		.cfi_offset 17, -12
 691 0016 CF93      		push r28
 692               	.LCFI33:
 693               		.cfi_def_cfa_offset 14
 694               		.cfi_offset 28, -13
 695 0018 DF93      		push r29
 696               	.LCFI34:
 697               		.cfi_def_cfa_offset 15
 698               		.cfi_offset 29, -14
 699               	/* prologue: function */
 700               	/* frame size = 0 */
 701               	/* stack size = 13 */
 702               	.L__stack_usage = 13
 703 001a 882E      		mov r8,r24
 704 001c 762E      		mov r7,r22
 705               	.LVL54:
 706 001e 85E0      		ldi r24,lo8(5)
 707               	.LVL55:
 708 0020 489F      		mul r20,r24
 709 0022 7001      		movw r14,r0
 710 0024 1124      		clr __zero_reg__
  87:graphics.c    **** 	int i, j;
  88:graphics.c    **** 	int char_width = 5;
  89:graphics.c    **** 	int char_height = 8;
  90:graphics.c    **** 
  91:graphics.c    **** 	// loop through each pixel in the character array and plot each one individually
  92:graphics.c    **** 	for (i = 0; i<char_width; i++) {
 711               		.loc 1 92 0
 712 0026 00E0      		ldi r16,0
 713 0028 10E0      		ldi r17,0
 714 002a C701      		movw r24,r14
 715 002c 8050      		subi r24,lo8(-(ASCII-160))
 716 002e 9040      		sbci r25,hi8(-(ASCII-160))
 717 0030 7C01      		movw r14,r24
  93:graphics.c    **** 		for (j = 0; j<char_height; j++) {
  94:graphics.c    **** 			set_pixel(top_left_x+i, top_left_y+j, (pgm_read_byte(&(ASCII[character - 0x20][i])) & (1 << j)) 
 718               		.loc 1 94 0
 719 0032 AA24      		clr r10
 720 0034 A394      		inc r10
 721 0036 B12C      		mov r11,__zero_reg__
 722               	.LVL56:
 723               	.L59:
  86:graphics.c    **** void draw_char(unsigned char top_left_x, unsigned char top_left_y, char character) {
 724               		.loc 1 86 0 discriminator 1
 725 0038 C0E0      		ldi r28,0
 726 003a D0E0      		ldi r29,0
 727               	.LBB10:
 728               		.loc 1 94 0 discriminator 1
 729 003c F701      		movw r30,r14
 730 003e E00F      		add r30,r16
 731 0040 F11F      		adc r31,r17
 732               	/* #APP */
 733               	 ;  94 "graphics.c" 1
 734 0042 C490      		lpm r12, Z
 735               		
 736               	 ;  0 "" 2
 737               	/* #NOAPP */
 738               	.LBE10:
 739 0044 D12C      		mov r13,__zero_reg__
 740 0046 982C      		mov r9,r8
 741 0048 900E      		add r9,r16
 742               	.LVL57:
 743               	.L62:
 744               		.loc 1 94 0 is_stmt 0 discriminator 2
 745 004a A501      		movw r20,r10
 746 004c 0C2E      		mov r0,r28
 747 004e 00C0      		rjmp 2f
 748               		1:
 749 0050 440F      		lsl r20
 750 0052 551F      		rol r21
 751               		2:
 752 0054 0A94      		dec r0
 753 0056 02F4      		brpl 1b
 754 0058 4C21      		and r20,r12
 755 005a 5D21      		and r21,r13
 756 005c 0C2E      		mov r0,r28
 757 005e 00C0      		rjmp 2f
 758               		1:
 759 0060 5595      		asr r21
 760 0062 4795      		ror r20
 761               		2:
 762 0064 0A94      		dec r0
 763 0066 02F4      		brpl 1b
 764 0068 6C2F      		mov r22,r28
 765 006a 670D      		add r22,r7
 766 006c 892D      		mov r24,r9
 767 006e 0E94 0000 		call set_pixel
 768               	.LVL58:
  93:graphics.c    **** 		for (j = 0; j<char_height; j++) {
 769               		.loc 1 93 0 is_stmt 1 discriminator 2
 770 0072 2196      		adiw r28,1
 771               	.LVL59:
 772 0074 C830      		cpi r28,8
 773 0076 D105      		cpc r29,__zero_reg__
 774 0078 01F4      		brne .L62
  92:graphics.c    **** 	for (i = 0; i<char_width; i++) {
 775               		.loc 1 92 0
 776 007a 0F5F      		subi r16,-1
 777 007c 1F4F      		sbci r17,-1
 778               	.LVL60:
 779 007e 0530      		cpi r16,5
 780 0080 1105      		cpc r17,__zero_reg__
 781 0082 01F4      		brne .L59
 782               	/* epilogue start */
  95:graphics.c    **** 		}
  96:graphics.c    **** 	}
  97:graphics.c    **** }
 783               		.loc 1 97 0
 784 0084 DF91      		pop r29
 785 0086 CF91      		pop r28
 786               	.LVL61:
 787 0088 1F91      		pop r17
 788 008a 0F91      		pop r16
 789               	.LVL62:
 790 008c FF90      		pop r15
 791 008e EF90      		pop r14
 792 0090 DF90      		pop r13
 793 0092 CF90      		pop r12
 794 0094 BF90      		pop r11
 795 0096 AF90      		pop r10
 796 0098 9F90      		pop r9
 797 009a 8F90      		pop r8
 798               	.LVL63:
 799 009c 7F90      		pop r7
 800               	.LVL64:
 801 009e 0895      		ret
 802               		.cfi_endproc
 803               	.LFE5:
 805               		.section	.text.draw_string,"ax",@progbits
 806               	.global	draw_string
 808               	draw_string:
 809               	.LFB6:
  98:graphics.c    **** 
  99:graphics.c    **** void draw_string(unsigned char top_left_x, unsigned char top_left_y, char *characters) {
 810               		.loc 1 99 0
 811               		.cfi_startproc
 812               	.LVL65:
 813 0000 0F93      		push r16
 814               	.LCFI35:
 815               		.cfi_def_cfa_offset 3
 816               		.cfi_offset 16, -2
 817 0002 1F93      		push r17
 818               	.LCFI36:
 819               		.cfi_def_cfa_offset 4
 820               		.cfi_offset 17, -3
 821 0004 CF93      		push r28
 822               	.LCFI37:
 823               		.cfi_def_cfa_offset 5
 824               		.cfi_offset 28, -4
 825 0006 DF93      		push r29
 826               	.LCFI38:
 827               		.cfi_def_cfa_offset 6
 828               		.cfi_offset 29, -5
 829               	/* prologue: function */
 830               	/* frame size = 0 */
 831               	/* stack size = 4 */
 832               	.L__stack_usage = 4
 833 0008 062F      		mov r16,r22
 834 000a EA01      		movw r28,r20
 835               	.LVL66:
 100:graphics.c    **** 	int i = 0;
 101:graphics.c    **** 	// Draw each character until the null terminator is reached
 102:graphics.c    **** 	while (*characters != 0) {
 836               		.loc 1 102 0
 837 000c 182F      		mov r17,r24
 838               	.LVL67:
 839               	.L64:
 840               		.loc 1 102 0 is_stmt 0 discriminator 1
 841 000e 4991      		ld r20,Y+
 842               	.LVL68:
 843 0010 4423      		tst r20
 844 0012 01F0      		breq .L66
 103:graphics.c    **** 		draw_char(top_left_x+i*5, top_left_y, *(characters));
 845               		.loc 1 103 0 is_stmt 1
 846 0014 602F      		mov r22,r16
 847 0016 812F      		mov r24,r17
 848 0018 0E94 0000 		call draw_char
 849               	.LVL69:
 850 001c 1B5F      		subi r17,lo8(-(5))
 851 001e 00C0      		rjmp .L64
 852               	.LVL70:
 853               	.L66:
 854               	/* epilogue start */
 104:graphics.c    **** 
 105:graphics.c    **** 		// Add a column of spaces here if you want to space out the lettering.
 106:graphics.c    **** 	    // (see lcd.c for a hint on how to do this)
 107:graphics.c    **** 
 108:graphics.c    **** 		characters++;
 109:graphics.c    **** 		i++;
 110:graphics.c    **** 	}
 111:graphics.c    **** }
 855               		.loc 1 111 0
 856 0020 DF91      		pop r29
 857 0022 CF91      		pop r28
 858               	.LVL71:
 859 0024 1F91      		pop r17
 860 0026 0F91      		pop r16
 861               	.LVL72:
 862 0028 0895      		ret
 863               		.cfi_endproc
 864               	.LFE6:
 866               		.comm	screenBuffer,504,1
 867               		.section	.progmem.data,"a",@progbits
 870               	ASCII:
 871 0000 00        		.byte	0
 872 0001 00        		.byte	0
 873 0002 00        		.byte	0
 874 0003 00        		.byte	0
 875 0004 00        		.byte	0
 876 0005 00        		.byte	0
 877 0006 00        		.byte	0
 878 0007 5F        		.byte	95
 879 0008 00        		.byte	0
 880 0009 00        		.byte	0
 881 000a 00        		.byte	0
 882 000b 07        		.byte	7
 883 000c 00        		.byte	0
 884 000d 07        		.byte	7
 885 000e 00        		.byte	0
 886 000f 14        		.byte	20
 887 0010 7F        		.byte	127
 888 0011 14        		.byte	20
 889 0012 7F        		.byte	127
 890 0013 14        		.byte	20
 891 0014 24        		.byte	36
 892 0015 2A        		.byte	42
 893 0016 7F        		.byte	127
 894 0017 2A        		.byte	42
 895 0018 12        		.byte	18
 896 0019 23        		.byte	35
 897 001a 13        		.byte	19
 898 001b 08        		.byte	8
 899 001c 64        		.byte	100
 900 001d 62        		.byte	98
 901 001e 36        		.byte	54
 902 001f 49        		.byte	73
 903 0020 55        		.byte	85
 904 0021 22        		.byte	34
 905 0022 50        		.byte	80
 906 0023 00        		.byte	0
 907 0024 05        		.byte	5
 908 0025 03        		.byte	3
 909 0026 00        		.byte	0
 910 0027 00        		.byte	0
 911 0028 00        		.byte	0
 912 0029 1C        		.byte	28
 913 002a 22        		.byte	34
 914 002b 41        		.byte	65
 915 002c 00        		.byte	0
 916 002d 00        		.byte	0
 917 002e 41        		.byte	65
 918 002f 22        		.byte	34
 919 0030 1C        		.byte	28
 920 0031 00        		.byte	0
 921 0032 14        		.byte	20
 922 0033 08        		.byte	8
 923 0034 3E        		.byte	62
 924 0035 08        		.byte	8
 925 0036 14        		.byte	20
 926 0037 08        		.byte	8
 927 0038 08        		.byte	8
 928 0039 3E        		.byte	62
 929 003a 08        		.byte	8
 930 003b 08        		.byte	8
 931 003c 00        		.byte	0
 932 003d 50        		.byte	80
 933 003e 30        		.byte	48
 934 003f 00        		.byte	0
 935 0040 00        		.byte	0
 936 0041 08        		.byte	8
 937 0042 08        		.byte	8
 938 0043 08        		.byte	8
 939 0044 08        		.byte	8
 940 0045 08        		.byte	8
 941 0046 00        		.byte	0
 942 0047 60        		.byte	96
 943 0048 60        		.byte	96
 944 0049 00        		.byte	0
 945 004a 00        		.byte	0
 946 004b 20        		.byte	32
 947 004c 10        		.byte	16
 948 004d 08        		.byte	8
 949 004e 04        		.byte	4
 950 004f 02        		.byte	2
 951 0050 3E        		.byte	62
 952 0051 51        		.byte	81
 953 0052 49        		.byte	73
 954 0053 45        		.byte	69
 955 0054 3E        		.byte	62
 956 0055 00        		.byte	0
 957 0056 42        		.byte	66
 958 0057 7F        		.byte	127
 959 0058 40        		.byte	64
 960 0059 00        		.byte	0
 961 005a 42        		.byte	66
 962 005b 61        		.byte	97
 963 005c 51        		.byte	81
 964 005d 49        		.byte	73
 965 005e 46        		.byte	70
 966 005f 21        		.byte	33
 967 0060 41        		.byte	65
 968 0061 45        		.byte	69
 969 0062 4B        		.byte	75
 970 0063 31        		.byte	49
 971 0064 18        		.byte	24
 972 0065 14        		.byte	20
 973 0066 12        		.byte	18
 974 0067 7F        		.byte	127
 975 0068 10        		.byte	16
 976 0069 27        		.byte	39
 977 006a 45        		.byte	69
 978 006b 45        		.byte	69
 979 006c 45        		.byte	69
 980 006d 39        		.byte	57
 981 006e 3C        		.byte	60
 982 006f 4A        		.byte	74
 983 0070 49        		.byte	73
 984 0071 49        		.byte	73
 985 0072 30        		.byte	48
 986 0073 01        		.byte	1
 987 0074 71        		.byte	113
 988 0075 09        		.byte	9
 989 0076 05        		.byte	5
 990 0077 03        		.byte	3
 991 0078 36        		.byte	54
 992 0079 49        		.byte	73
 993 007a 49        		.byte	73
 994 007b 49        		.byte	73
 995 007c 36        		.byte	54
 996 007d 06        		.byte	6
 997 007e 49        		.byte	73
 998 007f 49        		.byte	73
 999 0080 29        		.byte	41
 1000 0081 1E        		.byte	30
 1001 0082 00        		.byte	0
 1002 0083 36        		.byte	54
 1003 0084 36        		.byte	54
 1004 0085 00        		.byte	0
 1005 0086 00        		.byte	0
 1006 0087 00        		.byte	0
 1007 0088 56        		.byte	86
 1008 0089 36        		.byte	54
 1009 008a 00        		.byte	0
 1010 008b 00        		.byte	0
 1011 008c 08        		.byte	8
 1012 008d 14        		.byte	20
 1013 008e 22        		.byte	34
 1014 008f 41        		.byte	65
 1015 0090 00        		.byte	0
 1016 0091 14        		.byte	20
 1017 0092 14        		.byte	20
 1018 0093 14        		.byte	20
 1019 0094 14        		.byte	20
 1020 0095 14        		.byte	20
 1021 0096 00        		.byte	0
 1022 0097 41        		.byte	65
 1023 0098 22        		.byte	34
 1024 0099 14        		.byte	20
 1025 009a 08        		.byte	8
 1026 009b 02        		.byte	2
 1027 009c 01        		.byte	1
 1028 009d 51        		.byte	81
 1029 009e 09        		.byte	9
 1030 009f 06        		.byte	6
 1031 00a0 32        		.byte	50
 1032 00a1 49        		.byte	73
 1033 00a2 79        		.byte	121
 1034 00a3 41        		.byte	65
 1035 00a4 3E        		.byte	62
 1036 00a5 7E        		.byte	126
 1037 00a6 11        		.byte	17
 1038 00a7 11        		.byte	17
 1039 00a8 11        		.byte	17
 1040 00a9 7E        		.byte	126
 1041 00aa 7F        		.byte	127
 1042 00ab 49        		.byte	73
 1043 00ac 49        		.byte	73
 1044 00ad 49        		.byte	73
 1045 00ae 36        		.byte	54
 1046 00af 3E        		.byte	62
 1047 00b0 41        		.byte	65
 1048 00b1 41        		.byte	65
 1049 00b2 41        		.byte	65
 1050 00b3 22        		.byte	34
 1051 00b4 7F        		.byte	127
 1052 00b5 41        		.byte	65
 1053 00b6 41        		.byte	65
 1054 00b7 22        		.byte	34
 1055 00b8 1C        		.byte	28
 1056 00b9 7F        		.byte	127
 1057 00ba 49        		.byte	73
 1058 00bb 49        		.byte	73
 1059 00bc 49        		.byte	73
 1060 00bd 41        		.byte	65
 1061 00be 7F        		.byte	127
 1062 00bf 09        		.byte	9
 1063 00c0 09        		.byte	9
 1064 00c1 09        		.byte	9
 1065 00c2 01        		.byte	1
 1066 00c3 3E        		.byte	62
 1067 00c4 41        		.byte	65
 1068 00c5 49        		.byte	73
 1069 00c6 49        		.byte	73
 1070 00c7 7A        		.byte	122
 1071 00c8 7F        		.byte	127
 1072 00c9 08        		.byte	8
 1073 00ca 08        		.byte	8
 1074 00cb 08        		.byte	8
 1075 00cc 7F        		.byte	127
 1076 00cd 00        		.byte	0
 1077 00ce 41        		.byte	65
 1078 00cf 7F        		.byte	127
 1079 00d0 41        		.byte	65
 1080 00d1 00        		.byte	0
 1081 00d2 20        		.byte	32
 1082 00d3 40        		.byte	64
 1083 00d4 41        		.byte	65
 1084 00d5 3F        		.byte	63
 1085 00d6 01        		.byte	1
 1086 00d7 7F        		.byte	127
 1087 00d8 08        		.byte	8
 1088 00d9 14        		.byte	20
 1089 00da 22        		.byte	34
 1090 00db 41        		.byte	65
 1091 00dc 7F        		.byte	127
 1092 00dd 40        		.byte	64
 1093 00de 40        		.byte	64
 1094 00df 40        		.byte	64
 1095 00e0 40        		.byte	64
 1096 00e1 7F        		.byte	127
 1097 00e2 02        		.byte	2
 1098 00e3 0C        		.byte	12
 1099 00e4 02        		.byte	2
 1100 00e5 7F        		.byte	127
 1101 00e6 7F        		.byte	127
 1102 00e7 04        		.byte	4
 1103 00e8 08        		.byte	8
 1104 00e9 10        		.byte	16
 1105 00ea 7F        		.byte	127
 1106 00eb 3E        		.byte	62
 1107 00ec 41        		.byte	65
 1108 00ed 41        		.byte	65
 1109 00ee 41        		.byte	65
 1110 00ef 3E        		.byte	62
 1111 00f0 7F        		.byte	127
 1112 00f1 09        		.byte	9
 1113 00f2 09        		.byte	9
 1114 00f3 09        		.byte	9
 1115 00f4 06        		.byte	6
 1116 00f5 3E        		.byte	62
 1117 00f6 41        		.byte	65
 1118 00f7 51        		.byte	81
 1119 00f8 21        		.byte	33
 1120 00f9 5E        		.byte	94
 1121 00fa 7F        		.byte	127
 1122 00fb 09        		.byte	9
 1123 00fc 19        		.byte	25
 1124 00fd 29        		.byte	41
 1125 00fe 46        		.byte	70
 1126 00ff 46        		.byte	70
 1127 0100 49        		.byte	73
 1128 0101 49        		.byte	73
 1129 0102 49        		.byte	73
 1130 0103 31        		.byte	49
 1131 0104 01        		.byte	1
 1132 0105 01        		.byte	1
 1133 0106 7F        		.byte	127
 1134 0107 01        		.byte	1
 1135 0108 01        		.byte	1
 1136 0109 3F        		.byte	63
 1137 010a 40        		.byte	64
 1138 010b 40        		.byte	64
 1139 010c 40        		.byte	64
 1140 010d 3F        		.byte	63
 1141 010e 1F        		.byte	31
 1142 010f 20        		.byte	32
 1143 0110 40        		.byte	64
 1144 0111 20        		.byte	32
 1145 0112 1F        		.byte	31
 1146 0113 3F        		.byte	63
 1147 0114 40        		.byte	64
 1148 0115 38        		.byte	56
 1149 0116 40        		.byte	64
 1150 0117 3F        		.byte	63
 1151 0118 63        		.byte	99
 1152 0119 14        		.byte	20
 1153 011a 08        		.byte	8
 1154 011b 14        		.byte	20
 1155 011c 63        		.byte	99
 1156 011d 07        		.byte	7
 1157 011e 08        		.byte	8
 1158 011f 70        		.byte	112
 1159 0120 08        		.byte	8
 1160 0121 07        		.byte	7
 1161 0122 61        		.byte	97
 1162 0123 51        		.byte	81
 1163 0124 49        		.byte	73
 1164 0125 45        		.byte	69
 1165 0126 43        		.byte	67
 1166 0127 00        		.byte	0
 1167 0128 7F        		.byte	127
 1168 0129 41        		.byte	65
 1169 012a 41        		.byte	65
 1170 012b 00        		.byte	0
 1171 012c 02        		.byte	2
 1172 012d 04        		.byte	4
 1173 012e 08        		.byte	8
 1174 012f 10        		.byte	16
 1175 0130 20        		.byte	32
 1176 0131 00        		.byte	0
 1177 0132 41        		.byte	65
 1178 0133 41        		.byte	65
 1179 0134 7F        		.byte	127
 1180 0135 00        		.byte	0
 1181 0136 04        		.byte	4
 1182 0137 02        		.byte	2
 1183 0138 01        		.byte	1
 1184 0139 02        		.byte	2
 1185 013a 04        		.byte	4
 1186 013b 40        		.byte	64
 1187 013c 40        		.byte	64
 1188 013d 40        		.byte	64
 1189 013e 40        		.byte	64
 1190 013f 40        		.byte	64
 1191 0140 00        		.byte	0
 1192 0141 01        		.byte	1
 1193 0142 02        		.byte	2
 1194 0143 04        		.byte	4
 1195 0144 00        		.byte	0
 1196 0145 20        		.byte	32
 1197 0146 54        		.byte	84
 1198 0147 54        		.byte	84
 1199 0148 54        		.byte	84
 1200 0149 78        		.byte	120
 1201 014a 7F        		.byte	127
 1202 014b 48        		.byte	72
 1203 014c 44        		.byte	68
 1204 014d 44        		.byte	68
 1205 014e 38        		.byte	56
 1206 014f 38        		.byte	56
 1207 0150 44        		.byte	68
 1208 0151 44        		.byte	68
 1209 0152 44        		.byte	68
 1210 0153 20        		.byte	32
 1211 0154 38        		.byte	56
 1212 0155 44        		.byte	68
 1213 0156 44        		.byte	68
 1214 0157 48        		.byte	72
 1215 0158 7F        		.byte	127
 1216 0159 38        		.byte	56
 1217 015a 54        		.byte	84
 1218 015b 54        		.byte	84
 1219 015c 54        		.byte	84
 1220 015d 18        		.byte	24
 1221 015e 08        		.byte	8
 1222 015f 7E        		.byte	126
 1223 0160 09        		.byte	9
 1224 0161 01        		.byte	1
 1225 0162 02        		.byte	2
 1226 0163 0C        		.byte	12
 1227 0164 52        		.byte	82
 1228 0165 52        		.byte	82
 1229 0166 52        		.byte	82
 1230 0167 3E        		.byte	62
 1231 0168 7F        		.byte	127
 1232 0169 08        		.byte	8
 1233 016a 04        		.byte	4
 1234 016b 04        		.byte	4
 1235 016c 78        		.byte	120
 1236 016d 00        		.byte	0
 1237 016e 44        		.byte	68
 1238 016f 7D        		.byte	125
 1239 0170 40        		.byte	64
 1240 0171 00        		.byte	0
 1241 0172 20        		.byte	32
 1242 0173 40        		.byte	64
 1243 0174 44        		.byte	68
 1244 0175 3D        		.byte	61
 1245 0176 00        		.byte	0
 1246 0177 7F        		.byte	127
 1247 0178 10        		.byte	16
 1248 0179 28        		.byte	40
 1249 017a 44        		.byte	68
 1250 017b 00        		.byte	0
 1251 017c 00        		.byte	0
 1252 017d 41        		.byte	65
 1253 017e 7F        		.byte	127
 1254 017f 40        		.byte	64
 1255 0180 00        		.byte	0
 1256 0181 7C        		.byte	124
 1257 0182 04        		.byte	4
 1258 0183 18        		.byte	24
 1259 0184 04        		.byte	4
 1260 0185 78        		.byte	120
 1261 0186 7C        		.byte	124
 1262 0187 08        		.byte	8
 1263 0188 04        		.byte	4
 1264 0189 04        		.byte	4
 1265 018a 78        		.byte	120
 1266 018b 38        		.byte	56
 1267 018c 44        		.byte	68
 1268 018d 44        		.byte	68
 1269 018e 44        		.byte	68
 1270 018f 38        		.byte	56
 1271 0190 7C        		.byte	124
 1272 0191 14        		.byte	20
 1273 0192 14        		.byte	20
 1274 0193 14        		.byte	20
 1275 0194 08        		.byte	8
 1276 0195 08        		.byte	8
 1277 0196 14        		.byte	20
 1278 0197 14        		.byte	20
 1279 0198 18        		.byte	24
 1280 0199 7C        		.byte	124
 1281 019a 7C        		.byte	124
 1282 019b 08        		.byte	8
 1283 019c 04        		.byte	4
 1284 019d 04        		.byte	4
 1285 019e 08        		.byte	8
 1286 019f 48        		.byte	72
 1287 01a0 54        		.byte	84
 1288 01a1 54        		.byte	84
 1289 01a2 54        		.byte	84
 1290 01a3 20        		.byte	32
 1291 01a4 04        		.byte	4
 1292 01a5 3F        		.byte	63
 1293 01a6 44        		.byte	68
 1294 01a7 40        		.byte	64
 1295 01a8 20        		.byte	32
 1296 01a9 3C        		.byte	60
 1297 01aa 40        		.byte	64
 1298 01ab 40        		.byte	64
 1299 01ac 20        		.byte	32
 1300 01ad 7C        		.byte	124
 1301 01ae 1C        		.byte	28
 1302 01af 20        		.byte	32
 1303 01b0 40        		.byte	64
 1304 01b1 20        		.byte	32
 1305 01b2 1C        		.byte	28
 1306 01b3 3C        		.byte	60
 1307 01b4 40        		.byte	64
 1308 01b5 30        		.byte	48
 1309 01b6 40        		.byte	64
 1310 01b7 3C        		.byte	60
 1311 01b8 44        		.byte	68
 1312 01b9 28        		.byte	40
 1313 01ba 10        		.byte	16
 1314 01bb 28        		.byte	40
 1315 01bc 44        		.byte	68
 1316 01bd 0C        		.byte	12
 1317 01be 50        		.byte	80
 1318 01bf 50        		.byte	80
 1319 01c0 50        		.byte	80
 1320 01c1 3C        		.byte	60
 1321 01c2 44        		.byte	68
 1322 01c3 64        		.byte	100
 1323 01c4 54        		.byte	84
 1324 01c5 4C        		.byte	76
 1325 01c6 44        		.byte	68
 1326 01c7 00        		.byte	0
 1327 01c8 08        		.byte	8
 1328 01c9 36        		.byte	54
 1329 01ca 41        		.byte	65
 1330 01cb 00        		.byte	0
 1331 01cc 00        		.byte	0
 1332 01cd 00        		.byte	0
 1333 01ce 7F        		.byte	127
 1334 01cf 00        		.byte	0
 1335 01d0 00        		.byte	0
 1336 01d1 00        		.byte	0
 1337 01d2 41        		.byte	65
 1338 01d3 36        		.byte	54
 1339 01d4 08        		.byte	8
 1340 01d5 00        		.byte	0
 1341 01d6 10        		.byte	16
 1342 01d7 08        		.byte	8
 1343 01d8 08        		.byte	8
 1344 01d9 10        		.byte	16
 1345 01da 08        		.byte	8
 1346 01db 78        		.byte	120
 1347 01dc 46        		.byte	70
 1348 01dd 41        		.byte	65
 1349 01de 46        		.byte	70
 1350 01df 78        		.byte	120
 1351               		.text
 1352               	.Letext0:
 1353               		.file 2 "/usr/lib/avr/include/stdint.h"
 1354               		.file 3 "ascii_font.h"
 1355               		.file 4 "lcd.h"